; Function Attrs: mustprogress uwtable
define internal noundef zeroext i1 @_ZN8facebook6hermes12_GLOBAL__N_112TimedRuntime15drainMicrotasksEi(ptr noundef nonnull align 8 dereferenceable(112) %this, i32 noundef %maxMicrotasksHint) unnamed_addr #0 align 2 personality ptr @__gxx_personality_v0 {
entry:
  %timer = alloca %"class.facebook::hermes::(anonymous namespace)::RuntimeStats::RAIITimer", align 8
  %rts_ = getelementptr inbounds i8, ptr %this, i64 24
  tail call void @llvm.experimental.noalias.scope.decl(metadata !37)
  %incoming_.i = getelementptr inbounds i8, ptr %this, i64 48
  %runtimeStats_.i.i = getelementptr inbounds i8, ptr %timer, i64 8
  store ptr %rts_, ptr %runtimeStats_.i.i, align 8, !alias.scope !37
  %stat_.i.i = getelementptr inbounds i8, ptr %timer, i64 16
  store ptr %incoming_.i, ptr %stat_.i.i, align 8, !alias.scope !37
  %parent_.i.i = getelementptr inbounds i8, ptr %timer, i64 24
  %timerStack_.i.i = getelementptr inbounds i8, ptr %this, i64 96
  %0 = load ptr, ptr %timerStack_.i.i, align 8, !noalias !37
  store ptr %0, ptr %parent_.i.i, align 8, !alias.scope !37
  %wallTimeStart_.i.i = getelementptr inbounds i8, ptr %timer, i64 32
  %call.i.i = tail call i64 @_ZNSt6chrono3_V212steady_clock3nowEv() #21, !noalias !37
  store i64 %call.i.i, ptr %wallTimeStart_.i.i, align 8, !alias.scope !37
  %cpuTimeStart_.i.i = getelementptr inbounds i8, ptr %timer, i64 40
  %call3.i.i = tail call i64 @_ZN6hermes8oscompat15thread_cpu_timeEv(), !noalias !37
  store i64 %call3.i.i, ptr %cpuTimeStart_.i.i, align 8, !alias.scope !37
  store ptr %timer, ptr %timerStack_.i.i, align 8, !noalias !37
  %count.i.i = getelementptr inbounds i8, ptr %this, i64 64
  %1 = load i64, ptr %count.i.i, align 8, !noalias !37
  %add.i.i = add i64 %1, 1
  store i64 %add.i.i, ptr %count.i.i, align 8, !noalias !37
  %tobool.not.i.i = icmp eq ptr %0, null
  br i1 %tobool.not.i.i, label %if.then.i.i, label %_ZN8facebook6hermes12_GLOBAL__N_112RuntimeStats13incomingTimerEPKc.exit

if.then.i.i:                                      ; preds = %entry
  %count9.i.i = getelementptr inbounds i8, ptr %this, i64 88
  %2 = load i64, ptr %count9.i.i, align 8, !noalias !37
  %add10.i.i = add i64 %2, 1
  store i64 %add10.i.i, ptr %count9.i.i, align 8, !noalias !37
  br label %_ZN8facebook6hermes12_GLOBAL__N_112RuntimeStats13incomingTimerEPKc.exit

_ZN8facebook6hermes12_GLOBAL__N_112RuntimeStats13incomingTimerEPKc.exit: ; preds = %entry, %if.then.i.i
  %plain_.i.i = getelementptr inbounds i8, ptr %this, i64 16
  %3 = load ptr, ptr %plain_.i.i, align 8
  %vtable.i = load ptr, ptr %3, align 8
  %vfn.i = getelementptr inbounds i8, ptr %vtable.i, i64 40
  %4 = load ptr, ptr %vfn.i, align 8
  %call2.i1 = invoke noundef zeroext i1 %4(ptr noundef nonnull align 8 dereferenceable(8) %3, i32 noundef %maxMicrotasksHint)
          to label %invoke.cont unwind label %lpad

invoke.cont:                                      ; preds = %_ZN8facebook6hermes12_GLOBAL__N_112RuntimeStats13incomingTimerEPKc.exit
  %call.i1.i = invoke i64 @_ZN6hermes8oscompat15thread_cpu_timeEv()
          to label %call.i.noexc.i unwind label %terminate.lpad.i

call.i.noexc.i:                                   ; preds = %invoke.cont
  %call2.i.i = call i64 @_ZNSt6chrono3_V212steady_clock3nowEv() #21
  %5 = load <2 x i64>, ptr %wallTimeStart_.i.i, align 8
  %6 = insertelement <2 x i64> poison, i64 %call2.i.i, i64 0
  %7 = insertelement <2 x i64> %6, i64 %call.i1.i, i64 1
  %8 = sub nsw <2 x i64> %7, %5
  %9 = sitofp <2 x i64> %8 to <2 x double>
  %10 = fdiv <2 x double> %9, <double 1.000000e+09, double 1.000000e+06>
  %11 = load ptr, ptr %stat_.i.i, align 8
  %12 = load <2 x double>, ptr %11, align 8
  %13 = fadd <2 x double> %10, %12
  store <2 x double> %13, ptr %11, align 8
  %14 = load ptr, ptr %parent_.i.i, align 8
  %tobool.not.i.i6 = icmp eq ptr %14, null
  %.pre = load ptr, ptr %runtimeStats_.i.i, align 8
  br i1 %tobool.not.i.i6, label %if.then.i.i7, label %_ZN8facebook6hermes12_GLOBAL__N_112RuntimeStats9RAIITimerD2Ev.exit

if.then.i.i7:                                     ; preds = %call.i.noexc.i
  %total_.i.i = getelementptr inbounds i8, ptr %.pre, i64 48
  %15 = load <2 x double>, ptr %total_.i.i, align 8
  %16 = fadd <2 x double> %10, %15
  store <2 x double> %16, ptr %total_.i.i, align 8
  br label %_ZN8facebook6hermes12_GLOBAL__N_112RuntimeStats9RAIITimerD2Ev.exit

terminate.lpad.i:                                 ; preds = %invoke.cont
  %17 = landingpad { ptr, i32 }
          catch ptr null
  %18 = extractvalue { ptr, i32 } %17, 0
  call void @__clang_call_terminate(ptr %18) #20
  unreachable

_ZN8facebook6hermes12_GLOBAL__N_112RuntimeStats9RAIITimerD2Ev.exit: ; preds = %call.i.noexc.i, %if.then.i.i7
  %timerStack_.i = getelementptr inbounds i8, ptr %.pre, i64 72
  store ptr %14, ptr %timerStack_.i, align 8
  ret i1 %call2.i1

lpad:                                             ; preds = %_ZN8facebook6hermes12_GLOBAL__N_112RuntimeStats13incomingTimerEPKc.exit
  %19 = landingpad { ptr, i32 }
          cleanup
  call fastcc void @_ZN8facebook6hermes12_GLOBAL__N_112RuntimeStats9RAIITimerD2Ev(ptr noundef nonnull align 8 dereferenceable(48) %timer) #21
  resume { ptr, i32 } %19
}